target datalayout = "e-m:e-p270:32:32-p271:32:32-p272:64:64-i64:64-i128:128-f80:128-n8:16:32:64-S128"
target triple = "x86_64-pc-linux-gnu"

; Function Attrs: nounwind uwtable
define i32 @_testfunc_i_bhilfd(i8 noundef signext %0, i16 noundef signext %1, i32 noundef %2, i64 noundef %3, float noundef %4, double noundef %5) #0 {
  %7 = alloca i8, align 1
  %8 = alloca i16, align 2
  %9 = alloca i32, align 4
  %10 = alloca i64, align 8
  %11 = alloca float, align 4
  %12 = alloca double, align 8
  store i8 %0, ptr %7, align 1, !tbaa !20
  store i16 %1, ptr %8, align 2, !tbaa !54
  store i32 %2, ptr %9, align 4, !tbaa !3
  store i64 %3, ptr %10, align 8, !tbaa !35
  store float %4, ptr %11, align 4, !tbaa !23
  store double %5, ptr %12, align 8, !tbaa !9
  %13 = load i8, ptr %7, align 1, !tbaa !20
  %14 = sext i8 %13 to i32
  %15 = load i16, ptr %8, align 2, !tbaa !54
  %16 = sext i16 %15 to i32
  %17 = add i32 %14, %16
  %18 = load i32, ptr %9, align 4, !tbaa !3
  %19 = add i32 %17, %18
  %20 = sext i32 %19 to i64
  %21 = load i64, ptr %10, align 8, !tbaa !35
  %22 = add i64 %20, %21
  %23 = sitofp i64 %22 to float
  %24 = load float, ptr %11, align 4, !tbaa !23
  %25 = fadd float %23, %24
  %26 = fpext float %25 to double
  %27 = load double, ptr %12, align 8, !tbaa !9
  %28 = fadd double %26, %27
  %29 = fptosi double %28 to i32
  ret i32 %29
}