; Function Attrs: mustprogress nofree norecurse nosync nounwind willreturn memory(none) uwtable
define i32 @_testfunc_i_bhilfd(i8 noundef signext %0, i16 noundef signext %1, i32 noundef %2, i64 noundef %3, float noundef %4, double noundef %5) local_unnamed_addr #10 {
  %7 = sext i8 %0 to i32
  %8 = sext i16 %1 to i32
  %9 = add nsw i32 %8, %7
  %10 = add i32 %9, %2
  %11 = sext i32 %10 to i64
  %12 = add i64 %3, %11
  %13 = sitofp i64 %12 to float
  %14 = fadd float %4, %13
  %15 = fpext float %14 to double
  %16 = fadd double %5, %15
  %17 = fptosi double %16 to i32
  ret i32 %17
}